; Function Attrs: mustprogress uwtable
define void @_ZNK10open_spiel14colored_trails5Board17PrettyBoardStringB5cxx11Ev(ptr dead_on_unwind noalias nonnull writable sret(%"class.std::__cxx11::basic_string") align 8 %0, ptr nocapture noundef nonnull readonly align 8 dereferenceable(112) %1) local_unnamed_addr #3 align 2 personality ptr @__gxx_personality_v0 {
  tail call void @_ZNSt7__cxx1112basic_stringIcSt11char_traitsIcESaIcEEC1Ev(ptr noundef nonnull align 8 dereferenceable(32) %0) #27
  %3 = load i32, ptr %1, align 8
  %4 = icmp sgt i32 %3, 0
  br i1 %4, label %.preheader.lr.ph, label %._crit_edge13

.preheader.lr.ph:                                 ; preds = %2
  %5 = getelementptr inbounds nuw i8, ptr %1, i64 16
  br label %.preheader

.preheader:                                       ; preds = %.preheader.lr.ph, %22
  %6 = phi i32 [ %3, %.preheader.lr.ph ], [ %24, %22 ]
  %.012 = phi i32 [ 0, %.preheader.lr.ph ], [ %23, %22 ]
  %7 = icmp sgt i32 %6, 0
  br i1 %7, label %.lr.ph, label %._crit_edge

.lr.ph:                                           ; preds = %.preheader, %17
  %8 = phi i32 [ %19, %17 ], [ %6, %.preheader ]
  %.0911 = phi i32 [ %18, %17 ], [ 0, %.preheader ]
  %9 = mul nsw i32 %8, %.012
  %10 = add nsw i32 %9, %.0911
  %11 = sext i32 %10 to i64
  %12 = load ptr, ptr %5, align 8
  %13 = getelementptr inbounds i32, ptr %12, i64 %11
  %14 = load i32, ptr %13, align 4
  %15 = invoke noundef signext i8 @_ZN10open_spiel14colored_trails11ColorToCharEi(i32 noundef %14)
          to label %16 unwind label %.loopexit

16:                                               ; preds = %.lr.ph
  invoke void @_ZNSt7__cxx1112basic_stringIcSt11char_traitsIcESaIcEE9push_backEc(ptr noundef nonnull align 8 dereferenceable(32) %0, i8 noundef signext %15)
          to label %17 unwind label %.loopexit

17:                                               ; preds = %16
  %18 = add nuw nsw i32 %.0911, 1
  %19 = load i32, ptr %1, align 8
  %20 = icmp slt i32 %18, %19
  br i1 %20, label %.lr.ph, label %._crit_edge, !llvm.loop !34

.loopexit:                                        ; preds = %.lr.ph, %16
  %lpad.loopexit = landingpad { ptr, i32 }
          cleanup
  br label %21

.loopexit.split-lp:                               ; preds = %._crit_edge
  %lpad.loopexit.split-lp = landingpad { ptr, i32 }
          cleanup
  br label %21

21:                                               ; preds = %.loopexit.split-lp, %.loopexit
  %lpad.phi = phi { ptr, i32 } [ %lpad.loopexit, %.loopexit ], [ %lpad.loopexit.split-lp, %.loopexit.split-lp ]
  tail call void @_ZNSt7__cxx1112basic_stringIcSt11char_traitsIcESaIcEED1Ev(ptr noundef nonnull align 8 dereferenceable(32) %0) #27
  resume { ptr, i32 } %lpad.phi

._crit_edge:                                      ; preds = %17, %.preheader
  invoke void @_ZNSt7__cxx1112basic_stringIcSt11char_traitsIcESaIcEE9push_backEc(ptr noundef nonnull align 8 dereferenceable(32) %0, i8 noundef signext 10)
          to label %22 unwind label %.loopexit.split-lp

22:                                               ; preds = %._crit_edge
  %23 = add nuw nsw i32 %.012, 1
  %24 = load i32, ptr %1, align 8
  %25 = icmp slt i32 %23, %24
  br i1 %25, label %.preheader, label %._crit_edge13, !llvm.loop !35

._crit_edge13:                                    ; preds = %22, %2
  ret void
}